target datalayout = "e-m:e-p270:32:32-p271:32:32-p272:64:64-i64:64-i128:128-f80:128-n8:16:32:64-S128"
target triple = "x86_64-pc-linux-gnu"

%"class.net::TcpCubicSenderBytes" = type { %"class.net::TcpCubicSenderBase.base", %"class.net::CubicBytes", i64, i64, i64, i64, i64, i64, i64, i64 }
%"class.net::TcpCubicSenderBase.base" = type <{ %"class.net::SendAlgorithmInterface", %"class.net::HybridSlowStart", %"class.net::PrrSender", ptr, ptr, i8, [3 x i8], i32, i64, i64, i64, i8, i8, i8, i8, i8 }>
%"class.net::SendAlgorithmInterface" = type { ptr }
%"class.net::HybridSlowStart" = type { i8, i32, i64, i64, i32, %"class.net::QuicTime::Delta" }
%"class.net::QuicTime::Delta" = type { %"class.base::TimeDelta", i64 }
%"class.base::TimeDelta" = type { i64 }
%"class.net::PrrSender" = type { i64, i64, i64, i64 }
%"class.net::CubicBytes" = type { ptr, i32, %"class.net::QuicTime", %"class.net::QuicTime", i64, i64, i64, i64, i64, i32, i64 }
%"class.net::QuicTime" = type { i64 }
%"class.net::TcpCubicSenderBase" = type <{ %"class.net::SendAlgorithmInterface", %"class.net::HybridSlowStart", %"class.net::PrrSender", ptr, ptr, i8, [3 x i8], i32, i64, i64, i64, i8, i8, i8, i8, i8, [3 x i8] }>
%"class.logging::LogMessage" = type <{ i32, [4 x i8], %"class.std::__cxx11::basic_ostringstream", i64, ptr, i32, [4 x i8] }>
%"class.std::__cxx11::basic_ostringstream" = type { %"class.std::basic_ostream.base", %"class.std::__cxx11::basic_stringbuf", %"class.std::basic_ios" }
%"class.std::basic_ostream.base" = type { ptr }
%"class.std::__cxx11::basic_stringbuf" = type { %"class.std::basic_streambuf", i32, %"class.std::__cxx11::basic_string" }
%"class.std::basic_streambuf" = type { ptr, ptr, ptr, ptr, ptr, ptr, ptr, %"class.std::locale" }
%"class.std::locale" = type { ptr }
%"class.std::__cxx11::basic_string" = type { %"struct.std::__cxx11::basic_string<char>::_Alloc_hider", i64, %union.anon }
%"struct.std::__cxx11::basic_string<char>::_Alloc_hider" = type { ptr }
%union.anon = type { i64, [8 x i8] }
%"class.std::basic_ios" = type { %"class.std::ios_base", ptr, i8, i8, ptr, ptr, ptr, ptr }
%"class.std::ios_base" = type { ptr, i64, i64, i32, i32, i32, ptr, %"struct.std::ios_base::_Words", [8 x %"struct.std::ios_base::_Words"], i32, ptr, %"class.std::locale" }
%"struct.std::ios_base::_Words" = type { ptr, i64 }
%"class.logging::LogMessageVoidify" = type { i8 }
%"class.net::RttStats" = type { %"class.net::QuicTime::Delta", %"class.net::QuicTime::Delta", %"class.net::QuicTime::Delta", %"class.net::QuicTime::Delta", %"class.net::QuicTime::Delta", i64, %"class.net::QuicTime::Delta", %"class.net::QuicTime", i32, %"class.net::WindowedFilter" }
%"class.net::WindowedFilter" = type { %"class.net::QuicTime::Delta", %"class.net::QuicTime::Delta", [3 x %"struct.net::WindowedFilter<net::QuicTime::Delta, net::MinFilter<net::QuicTime::Delta>, net::QuicTime, net::QuicTime::Delta>::Sample"] }
%"struct.net::WindowedFilter<net::QuicTime::Delta, net::MinFilter<net::QuicTime::Delta>, net::QuicTime, net::QuicTime::Delta>::Sample" = type { %"class.net::QuicTime::Delta", %"class.net::QuicTime" }

@.str = private unnamed_addr constant [156 x i8] c"generated/home/dtcxzyw/WorkSpace/Projects/compilers/llvm-opt-benchmark/bench/libquic/libquic/src/net/quic/core/congestion_control/tcp_cubic_sender_bytes.cc\00", align 1
@.str.1 = private unnamed_addr constant [41 x i8] c"Never increase the CWND during recovery.\00", align 1

; Function Attrs: inlinehint mustprogress nounwind uwtable
define linkonce_odr noundef i32 @_ZStorSt12_Ios_IostateS_(i32 noundef %0, i32 noundef %1) #7 comdat {
  %3 = alloca i32, align 4
  %4 = alloca i32, align 4
  store i32 %0, ptr %3, align 4, !tbaa !75
  store i32 %1, ptr %4, align 4, !tbaa !75
  %5 = load i32, ptr %3, align 4, !tbaa !75
  %6 = load i32, ptr %4, align 4, !tbaa !75
  %7 = or i32 %5, %6
  ret i32 %7
}

; Function Attrs: mustprogress nounwind uwtable
define available_externally noundef i32 @_ZNKSt9basic_iosIcSt11char_traitsIcEE7rdstateEv(ptr noundef nonnull align 8 dereferenceable(264) %0) #3 align 2 {
  %2 = alloca ptr, align 8
  store ptr %0, ptr %2, align 8, !tbaa !73
  %3 = load ptr, ptr %2, align 8
  %4 = getelementptr inbounds nuw %"class.std::ios_base", ptr %3, i32 0, i32 5
  %5 = load i32, ptr %4, align 8, !tbaa !77
  ret i32 %5
}

; Function Attrs: mustprogress nounwind uwtable
define linkonce_odr noundef i64 @_ZNSt11char_traitsIcE6lengthEPKc(ptr noundef %0) #3 comdat align 2 {
  %2 = alloca ptr, align 8
  store ptr %0, ptr %2, align 8, !tbaa !71
  %3 = load ptr, ptr %2, align 8, !tbaa !71
  %4 = call i64 @strlen(ptr noundef %3) #9
  ret i64 %4
}

; Function Attrs: mustprogress uwtable
define available_externally void @_ZNSt9basic_iosIcSt11char_traitsIcEE8setstateESt12_Ios_Iostate(ptr noundef nonnull align 8 dereferenceable(264) %0, i32 noundef %1) #0 align 2 {
  %3 = alloca ptr, align 8
  %4 = alloca i32, align 4
  store ptr %0, ptr %3, align 8, !tbaa !73
  store i32 %1, ptr %4, align 4, !tbaa !75
  %5 = load ptr, ptr %3, align 8
  %6 = call noundef i32 @_ZNKSt9basic_iosIcSt11char_traitsIcEE7rdstateEv(ptr noundef nonnull align 8 dereferenceable(264) %5)
  %7 = load i32, ptr %4, align 4, !tbaa !75
  %8 = call noundef i32 @_ZStorSt12_Ios_IostateS_(i32 noundef %6, i32 noundef %7)
  call void @_ZNSt9basic_iosIcSt11char_traitsIcEE5clearESt12_Ios_Iostate(ptr noundef nonnull align 8 dereferenceable(264) %5, i32 noundef %8)
  ret void
}

; Function Attrs: inlinehint mustprogress nounwind uwtable
define linkonce_odr noundef nonnull align 8 dereferenceable(8) ptr @_ZSt3minImERKT_S2_S2_(ptr noundef nonnull align 8 dereferenceable(8) %0, ptr noundef nonnull align 8 dereferenceable(8) %1) #7 comdat {
  %3 = alloca ptr, align 8
  %4 = alloca ptr, align 8
  %5 = alloca ptr, align 8
  store ptr %0, ptr %4, align 8, !tbaa !42
  store ptr %1, ptr %5, align 8, !tbaa !42
  %6 = load ptr, ptr %5, align 8, !tbaa !42
  %7 = load i64, ptr %6, align 8, !tbaa !14
  %8 = load ptr, ptr %4, align 8, !tbaa !42
  %9 = load i64, ptr %8, align 8, !tbaa !14
  %10 = icmp ult i64 %7, %9
  br i1 %10, label %11, label %13

11:                                               ; preds = %2
  %12 = load ptr, ptr %5, align 8, !tbaa !42
  store ptr %12, ptr %3, align 8
  br label %15

13:                                               ; preds = %2
  %14 = load ptr, ptr %4, align 8, !tbaa !42
  store ptr %14, ptr %3, align 8
  br label %15

15:                                               ; preds = %13, %11
  %16 = load ptr, ptr %3, align 8
  ret ptr %16
}

; Function Attrs: mustprogress nounwind uwtable
define linkonce_odr { i64, i64 } @_ZNK3net8RttStats7min_rttEv(ptr noundef nonnull align 8 dereferenceable(224) %0) #3 comdat align 2 {
  %2 = alloca %"class.net::QuicTime::Delta", align 8
  %3 = alloca ptr, align 8
  store ptr %0, ptr %3, align 8, !tbaa !10
  %4 = load ptr, ptr %3, align 8
  %5 = getelementptr inbounds nuw %"class.net::RttStats", ptr %4, i32 0, i32 1
  call void @llvm.memcpy.p0.p0.i64(ptr align 8 %2, ptr align 8 %5, i64 16, i1 false), !tbaa.struct !41
  %6 = load { i64, i64 }, ptr %2, align 8
  ret { i64, i64 } %6
}

; Function Attrs: mustprogress nounwind uwtable
define linkonce_odr void @_ZN7logging17LogMessageVoidifyanERSo(ptr noundef nonnull align 1 dereferenceable(1) %0, ptr noundef nonnull align 8 dereferenceable(8) %1) #3 comdat align 2 {
  %3 = alloca ptr, align 8
  %4 = alloca ptr, align 8
  store ptr %0, ptr %3, align 8, !tbaa !67
  store ptr %1, ptr %4, align 8, !tbaa !69
  ret void
}

; Function Attrs: inlinehint mustprogress uwtable
define available_externally noundef nonnull align 8 dereferenceable(8) ptr @_ZStlsISt11char_traitsIcEERSt13basic_ostreamIcT_ES5_PKc(ptr noundef nonnull align 8 dereferenceable(8) %0, ptr noundef %1) #8 {
  %3 = alloca ptr, align 8
  %4 = alloca ptr, align 8
  store ptr %0, ptr %3, align 8, !tbaa !69
  store ptr %1, ptr %4, align 8, !tbaa !71
  %5 = load ptr, ptr %4, align 8, !tbaa !71
  %6 = icmp ne ptr %5, null
  br i1 %6, label %13, label %7

7:                                                ; preds = %2
  %8 = load ptr, ptr %3, align 8, !tbaa !69
  %9 = load ptr, ptr %8, align 8, !tbaa !20
  %10 = getelementptr i8, ptr %9, i64 -24
  %11 = load i64, ptr %10, align 8
  %12 = getelementptr inbounds i8, ptr %8, i64 %11
  call void @_ZNSt9basic_iosIcSt11char_traitsIcEE8setstateESt12_Ios_Iostate(ptr noundef nonnull align 8 dereferenceable(264) %12, i32 noundef 1)
  br label %19

13:                                               ; preds = %2
  %14 = load ptr, ptr %3, align 8, !tbaa !69
  %15 = load ptr, ptr %4, align 8, !tbaa !71
  %16 = load ptr, ptr %4, align 8, !tbaa !71
  %17 = call noundef i64 @_ZNSt11char_traitsIcE6lengthEPKc(ptr noundef %16)
  %18 = call noundef nonnull align 8 dereferenceable(8) ptr @_ZSt16__ostream_insertIcSt11char_traitsIcEERSt13basic_ostreamIT_T0_ES6_PKS3_l(ptr noundef nonnull align 8 dereferenceable(8) %14, ptr noundef %15, i64 noundef %17)
  br label %19

19:                                               ; preds = %13, %7
  %20 = load ptr, ptr %3, align 8, !tbaa !69
  ret ptr %20
}

; Function Attrs: mustprogress nounwind uwtable
define linkonce_odr noundef nonnull align 8 dereferenceable(8) ptr @_ZN7logging10LogMessage6streamEv(ptr noundef nonnull align 8 dereferenceable(404) %0) #3 comdat align 2 {
  %2 = alloca ptr, align 8
  store ptr %0, ptr %2, align 8, !tbaa !64
  %3 = load ptr, ptr %2, align 8
  %4 = getelementptr inbounds nuw %"class.logging::LogMessage", ptr %3, i32 0, i32 2
  ret ptr %4
}

; Function Attrs: mustprogress nounwind uwtable
define linkonce_odr void @_ZN7logging17LogMessageVoidifyC2Ev(ptr noundef nonnull align 1 dereferenceable(1) %0) unnamed_addr #3 comdat align 2 {
  %2 = alloca ptr, align 8
  store ptr %0, ptr %2, align 8, !tbaa !67
  ret void
}

; Function Attrs: mustprogress uwtable
define void @_ZN3net19TcpCubicSenderBytes17MaybeIncreaseCwndEmmm(ptr noundef nonnull align 8 dereferenceable(296) %0, i64 noundef %1, i64 noundef %2, i64 noundef %3) unnamed_addr #0 align 2 personality ptr @__gxx_personality_v0 {
  %5 = alloca ptr, align 8
  %6 = alloca i64, align 8
  %7 = alloca i64, align 8
  %8 = alloca i64, align 8
  %9 = alloca %"class.logging::LogMessageVoidify", align 1
  %10 = alloca %"class.logging::LogMessage", align 8
  %11 = alloca i1, align 1
  %12 = alloca i1, align 1
  %13 = alloca ptr, align 8
  %14 = alloca i32, align 4
  %15 = alloca i64, align 8
  %16 = alloca %"class.net::QuicTime::Delta", align 8
  store ptr %0, ptr %5, align 8, !tbaa !3
  store i64 %1, ptr %6, align 8, !tbaa !14
  store i64 %2, ptr %7, align 8, !tbaa !14
  store i64 %3, ptr %8, align 8, !tbaa !14
  %17 = load ptr, ptr %5, align 8
  %18 = call noundef zeroext i1 @_ZN7logging22ShouldCreateLogMessageEi(i32 noundef 2)
  call void @llvm.lifetime.start.p0(i64 1, ptr %9) #9
  store i1 false, ptr %11, align 1
  store i1 false, ptr %12, align 1
  br i1 %18, label %19, label %24

19:                                               ; preds = %4
  %20 = load ptr, ptr %17, align 8, !tbaa !20
  %21 = getelementptr inbounds ptr, ptr %20, i64 14
  %22 = load ptr, ptr %21, align 8
  %23 = call noundef zeroext i1 %22(ptr noundef nonnull align 8 dereferenceable(141) %17)
  br i1 %23, label %25, label %24

24:                                               ; preds = %19, %4
  br label %31

25:                                               ; preds = %19
  call void @_ZN7logging17LogMessageVoidifyC2Ev(ptr noundef nonnull align 1 dereferenceable(1) %9)
  call void @llvm.lifetime.start.p0(i64 408, ptr %10) #9
  store i1 true, ptr %11, align 1
  call void @_ZN7logging10LogMessageC1EPKcii(ptr noundef nonnull align 8 dereferenceable(404) %10, ptr noundef @.str, i32 noundef 156, i32 noundef 2)
  store i1 true, ptr %12, align 1
  %26 = invoke noundef nonnull align 8 dereferenceable(8) ptr @_ZN7logging10LogMessage6streamEv(ptr noundef nonnull align 8 dereferenceable(404) %10)
          to label %27 unwind label %42

27:                                               ; preds = %25
  %28 = invoke noundef nonnull align 8 dereferenceable(8) ptr @_ZStlsISt11char_traitsIcEERSt13basic_ostreamIcT_ES5_PKc(ptr noundef nonnull align 8 dereferenceable(8) %26, ptr noundef @.str.1)
          to label %29 unwind label %42

29:                                               ; preds = %27
  invoke void @_ZN7logging17LogMessageVoidifyanERSo(ptr noundef nonnull align 1 dereferenceable(1) %9, ptr noundef nonnull align 8 dereferenceable(8) %28)
          to label %30 unwind label %42

30:                                               ; preds = %29
  br label %31

31:                                               ; preds = %30, %24
  %32 = load i1, ptr %12, align 1
  br i1 %32, label %33, label %34

33:                                               ; preds = %31
  call void @_ZN7logging10LogMessageD1Ev(ptr noundef nonnull align 8 dereferenceable(404) %10) #9
  br label %34

34:                                               ; preds = %33, %31
  %35 = load i1, ptr %11, align 1
  br i1 %35, label %36, label %37

36:                                               ; preds = %34
  call void @llvm.lifetime.end.p0(i64 408, ptr %10) #9
  br label %37

37:                                               ; preds = %36, %34
  call void @llvm.lifetime.end.p0(i64 1, ptr %9) #9
  %38 = load i64, ptr %8, align 8, !tbaa !14
  %39 = call noundef zeroext i1 @_ZNK3net18TcpCubicSenderBase13IsCwndLimitedEm(ptr noundef nonnull align 8 dereferenceable(141) %17, i64 noundef %38)
  br i1 %39, label %52, label %40

40:                                               ; preds = %37
  %41 = getelementptr inbounds nuw %"class.net::TcpCubicSenderBytes", ptr %17, i32 0, i32 1
  call void @_ZN3net10CubicBytes20OnApplicationLimitedEv(ptr noundef nonnull align 8 dereferenceable(88) %41)
  br label %113

42:                                               ; preds = %29, %27, %25
  %43 = landingpad { ptr, i32 }
          cleanup
  %44 = extractvalue { ptr, i32 } %43, 0
  store ptr %44, ptr %13, align 8
  %45 = extractvalue { ptr, i32 } %43, 1
  store i32 %45, ptr %14, align 4
  %46 = load i1, ptr %12, align 1
  br i1 %46, label %47, label %48

47:                                               ; preds = %42
  call void @_ZN7logging10LogMessageD1Ev(ptr noundef nonnull align 8 dereferenceable(404) %10) #9
  br label %48

48:                                               ; preds = %47, %42
  %49 = load i1, ptr %11, align 1
  br i1 %49, label %50, label %51

50:                                               ; preds = %48
  call void @llvm.lifetime.end.p0(i64 408, ptr %10) #9
  br label %51

51:                                               ; preds = %50, %48
  call void @llvm.lifetime.end.p0(i64 1, ptr %9) #9
  br label %114

52:                                               ; preds = %37
  %53 = getelementptr inbounds nuw %"class.net::TcpCubicSenderBytes", ptr %17, i32 0, i32 3
  %54 = load i64, ptr %53, align 8, !tbaa !34
  %55 = getelementptr inbounds nuw %"class.net::TcpCubicSenderBytes", ptr %17, i32 0, i32 5
  %56 = load i64, ptr %55, align 8, !tbaa !36
  %57 = icmp uge i64 %54, %56
  br i1 %57, label %58, label %59

58:                                               ; preds = %52
  br label %113

59:                                               ; preds = %52
  %60 = load ptr, ptr %17, align 8, !tbaa !20
  %61 = getelementptr inbounds ptr, ptr %60, i64 13
  %62 = load ptr, ptr %61, align 8
  %63 = call noundef zeroext i1 %62(ptr noundef nonnull align 8 dereferenceable(141) %17)
  br i1 %63, label %64, label %68

64:                                               ; preds = %59
  %65 = getelementptr inbounds nuw %"class.net::TcpCubicSenderBytes", ptr %17, i32 0, i32 3
  %66 = load i64, ptr %65, align 8, !tbaa !34
  %67 = add i64 %66, 1460
  store i64 %67, ptr %65, align 8, !tbaa !34
  br label %113

68:                                               ; preds = %59
  %69 = getelementptr inbounds nuw %"class.net::TcpCubicSenderBase", ptr %17, i32 0, i32 5
  %70 = load i8, ptr %69, align 8, !tbaa !56, !range !18, !noundef !19
  %71 = trunc i8 %70 to i1
  br i1 %71, label %72, label %92

72:                                               ; preds = %68
  %73 = getelementptr inbounds nuw %"class.net::TcpCubicSenderBytes", ptr %17, i32 0, i32 2
  %74 = load i64, ptr %73, align 8, !tbaa !22
  %75 = add i64 %74, 1
  store i64 %75, ptr %73, align 8, !tbaa !22
  %76 = getelementptr inbounds nuw %"class.net::TcpCubicSenderBytes", ptr %17, i32 0, i32 2
  %77 = load i64, ptr %76, align 8, !tbaa !22
  %78 = getelementptr inbounds nuw %"class.net::TcpCubicSenderBase", ptr %17, i32 0, i32 7
  %79 = load i32, ptr %78, align 4, !tbaa !45
  %80 = zext i32 %79 to i64
  %81 = mul i64 %77, %80
  %82 = getelementptr inbounds nuw %"class.net::TcpCubicSenderBytes", ptr %17, i32 0, i32 3
  %83 = load i64, ptr %82, align 8, !tbaa !34
  %84 = udiv i64 %83, 1460
  %85 = icmp uge i64 %81, %84
  br i1 %85, label %86, label %91

86:                                               ; preds = %72
  %87 = getelementptr inbounds nuw %"class.net::TcpCubicSenderBytes", ptr %17, i32 0, i32 3
  %88 = load i64, ptr %87, align 8, !tbaa !34
  %89 = add i64 %88, 1460
  store i64 %89, ptr %87, align 8, !tbaa !34
  %90 = getelementptr inbounds nuw %"class.net::TcpCubicSenderBytes", ptr %17, i32 0, i32 2
  store i64 0, ptr %90, align 8, !tbaa !22
  br label %91

91:                                               ; preds = %86, %72
  br label %113

92:                                               ; preds = %68
  %93 = getelementptr inbounds nuw %"class.net::TcpCubicSenderBytes", ptr %17, i32 0, i32 5
  call void @llvm.lifetime.start.p0(i64 8, ptr %15) #9
  %94 = getelementptr inbounds nuw %"class.net::TcpCubicSenderBytes", ptr %17, i32 0, i32 1
  %95 = load i64, ptr %7, align 8, !tbaa !14
  %96 = getelementptr inbounds nuw %"class.net::TcpCubicSenderBytes", ptr %17, i32 0, i32 3
  %97 = load i64, ptr %96, align 8, !tbaa !34
  %98 = getelementptr inbounds nuw %"class.net::TcpCubicSenderBase", ptr %17, i32 0, i32 3
  %99 = load ptr, ptr %98, align 8, !tbaa !66
  %100 = call { i64, i64 } @_ZNK3net8RttStats7min_rttEv(ptr noundef nonnull align 8 dereferenceable(224) %99)
  %101 = getelementptr inbounds nuw { i64, i64 }, ptr %16, i32 0, i32 0
  %102 = extractvalue { i64, i64 } %100, 0
  store i64 %102, ptr %101, align 8
  %103 = getelementptr inbounds nuw { i64, i64 }, ptr %16, i32 0, i32 1
  %104 = extractvalue { i64, i64 } %100, 1
  store i64 %104, ptr %103, align 8
  %105 = getelementptr inbounds nuw { i64, i64 }, ptr %16, i32 0, i32 0
  %106 = load i64, ptr %105, align 8
  %107 = getelementptr inbounds nuw { i64, i64 }, ptr %16, i32 0, i32 1
  %108 = load i64, ptr %107, align 8
  %109 = call noundef i64 @_ZN3net10CubicBytes24CongestionWindowAfterAckEmmNS_8QuicTime5DeltaE(ptr noundef nonnull align 8 dereferenceable(88) %94, i64 noundef %95, i64 noundef %97, i64 %106, i64 %108)
  store i64 %109, ptr %15, align 8, !tbaa !14
  %110 = call noundef nonnull align 8 dereferenceable(8) ptr @_ZSt3minImERKT_S2_S2_(ptr noundef nonnull align 8 dereferenceable(8) %93, ptr noundef nonnull align 8 dereferenceable(8) %15)
  %111 = load i64, ptr %110, align 8, !tbaa !14
  %112 = getelementptr inbounds nuw %"class.net::TcpCubicSenderBytes", ptr %17, i32 0, i32 3
  store i64 %111, ptr %112, align 8, !tbaa !34
  call void @llvm.lifetime.end.p0(i64 8, ptr %15) #9
  br label %113

113:                                              ; preds = %40, %58, %64, %92, %91
  ret void

114:                                              ; preds = %51
  %115 = load ptr, ptr %13, align 8
  %116 = load i32, ptr %14, align 4
  %117 = insertvalue { ptr, i32 } poison, ptr %115, 0
  %118 = insertvalue { ptr, i32 } %117, i32 %116, 1
  resume { ptr, i32 } %118
}