; Function Attrs: mustprogress uwtable
define void @_ZN3net19TcpCubicSenderBytes17MaybeIncreaseCwndEmmm(ptr noundef nonnull align 8 dereferenceable(296) %0, i64 %1, i64 noundef %2, i64 noundef %3) unnamed_addr #0 align 2 personality ptr @__gxx_personality_v0 {
  %5 = alloca %"class.logging::LogMessage", align 8
  %6 = tail call noundef zeroext i1 @_ZN7logging22ShouldCreateLogMessageEi(i32 noundef 2)
  br i1 %6, label %7, label %.critedge

7:                                                ; preds = %4
  %8 = load ptr, ptr %0, align 8, !tbaa !3
  %9 = getelementptr inbounds nuw i8, ptr %8, i64 112
  %10 = load ptr, ptr %9, align 8
  %11 = tail call noundef zeroext i1 %10(ptr noundef nonnull align 8 dereferenceable(141) %0)
  br i1 %11, label %12, label %.critedge

12:                                               ; preds = %7
  call void @llvm.lifetime.start.p0(i64 408, ptr nonnull %5) #10
  call void @_ZN7logging10LogMessageC1EPKcii(ptr noundef nonnull align 8 dereferenceable(404) %5, ptr noundef nonnull @.str, i32 noundef 156, i32 noundef 2)
  %13 = getelementptr inbounds nuw i8, ptr %5, i64 8
  %14 = invoke noundef nonnull align 8 dereferenceable(8) ptr @_ZSt16__ostream_insertIcSt11char_traitsIcEERSt13basic_ostreamIT_T0_ES6_PKS3_l(ptr noundef nonnull align 8 dereferenceable(8) %13, ptr noundef nonnull @.str.1, i64 noundef 40)
          to label %.critedge11 unwind label %18

.critedge11:                                      ; preds = %12
  call void @_ZN7logging10LogMessageD1Ev(ptr noundef nonnull align 8 dereferenceable(404) %5) #10
  call void @llvm.lifetime.end.p0(i64 408, ptr nonnull %5) #10
  br label %.critedge

.critedge:                                        ; preds = %7, %4, %.critedge11
  %15 = call noundef zeroext i1 @_ZNK3net18TcpCubicSenderBase13IsCwndLimitedEm(ptr noundef nonnull align 8 dereferenceable(141) %0, i64 noundef %3)
  br i1 %15, label %20, label %16

16:                                               ; preds = %.critedge
  %17 = getelementptr inbounds nuw i8, ptr %0, i64 144
  call void @_ZN3net10CubicBytes20OnApplicationLimitedEv(ptr noundef nonnull align 8 dereferenceable(88) %17)
  br label %57

18:                                               ; preds = %12
  %19 = landingpad { ptr, i32 }
          cleanup
  call void @_ZN7logging10LogMessageD1Ev(ptr noundef nonnull align 8 dereferenceable(404) %5) #10
  call void @llvm.lifetime.end.p0(i64 408, ptr nonnull %5) #10
  resume { ptr, i32 } %19

20:                                               ; preds = %.critedge
  %21 = getelementptr inbounds nuw i8, ptr %0, i64 240
  %22 = load i64, ptr %21, align 8, !tbaa !25
  %23 = getelementptr inbounds nuw i8, ptr %0, i64 256
  %24 = load i64, ptr %23, align 8, !tbaa !27
  %.not = icmp ult i64 %22, %24
  br i1 %.not, label %25, label %57

25:                                               ; preds = %20
  %26 = load ptr, ptr %0, align 8, !tbaa !3
  %27 = getelementptr inbounds nuw i8, ptr %26, i64 104
  %28 = load ptr, ptr %27, align 8
  %29 = call noundef zeroext i1 %28(ptr noundef nonnull align 8 dereferenceable(141) %0)
  br i1 %29, label %30, label %33

30:                                               ; preds = %25
  %31 = load i64, ptr %21, align 8, !tbaa !25
  %32 = add i64 %31, 1460
  store i64 %32, ptr %21, align 8, !tbaa !25
  br label %57

33:                                               ; preds = %25
  %34 = getelementptr inbounds nuw i8, ptr %0, i64 104
  %35 = load i8, ptr %34, align 8, !tbaa !47, !range !33, !noundef !34
  %36 = trunc nuw i8 %35 to i1
  br i1 %36, label %37, label %49

37:                                               ; preds = %33
  %38 = getelementptr inbounds nuw i8, ptr %0, i64 232
  %39 = load i64, ptr %38, align 8, !tbaa !6
  %40 = add i64 %39, 1
  store i64 %40, ptr %38, align 8, !tbaa !6
  %41 = getelementptr inbounds nuw i8, ptr %0, i64 108
  %42 = load i32, ptr %41, align 4, !tbaa !36
  %43 = zext i32 %42 to i64
  %44 = mul i64 %40, %43
  %45 = load i64, ptr %21, align 8, !tbaa !25
  %46 = udiv i64 %45, 1460
  %.not9 = icmp ult i64 %44, %46
  br i1 %.not9, label %57, label %47

47:                                               ; preds = %37
  %48 = add i64 %45, 1460
  store i64 %48, ptr %21, align 8, !tbaa !25
  store i64 0, ptr %38, align 8, !tbaa !6
  br label %57

49:                                               ; preds = %33
  %50 = getelementptr inbounds nuw i8, ptr %0, i64 144
  %51 = load i64, ptr %21, align 8, !tbaa !25
  %52 = getelementptr inbounds nuw i8, ptr %0, i64 88
  %53 = load ptr, ptr %52, align 8, !tbaa !49
  %54 = getelementptr inbounds nuw i8, ptr %53, i64 16
  %.sroa.0.0.copyload.i = load i64, ptr %54, align 8, !tbaa !35
  %.sroa.2.0..sroa_idx.i = getelementptr inbounds nuw i8, ptr %53, i64 24
  %.sroa.2.0.copyload.i = load i64, ptr %.sroa.2.0..sroa_idx.i, align 8, !tbaa !35
  %55 = call noundef i64 @_ZN3net10CubicBytes24CongestionWindowAfterAckEmmNS_8QuicTime5DeltaE(ptr noundef nonnull align 8 dereferenceable(88) %50, i64 noundef %2, i64 noundef %51, i64 %.sroa.0.0.copyload.i, i64 %.sroa.2.0.copyload.i)
  %56 = load i64, ptr %23, align 8, !tbaa !35
  %.sroa.speculated = call i64 @llvm.umin.i64(i64 %55, i64 %56)
  store i64 %.sroa.speculated, ptr %21, align 8, !tbaa !25
  br label %57

57:                                               ; preds = %37, %47, %20, %49, %30, %16
  ret void
}